; Function Attrs: mustprogress nounwind uwtable
define zeroext range(i8 0, 2) i8 @JVM_IsUseContainerSupport() local_unnamed_addr #0 {
  %1 = load volatile i8, ptr @_ZN7VM_Exit10_vm_exitedE, align 1
  %2 = trunc i8 %1 to i1
  br i1 %2, label %3, label %_ZN7VM_Exit18block_if_vm_exitedEv.exit

3:                                                ; preds = %0
  tail call void @_ZN7VM_Exit17wait_if_vm_exitedEv() #16
  br label %_ZN7VM_Exit18block_if_vm_exitedEv.exit

_ZN7VM_Exit18block_if_vm_exitedEv.exit:           ; preds = %0, %3
  %4 = load i8, ptr @UseContainerSupport, align 1
  %. = and i8 %4, 1
  ret i8 %.
}